; Function Attrs: nounwind uwtable
define hidden ptr @lj_mem_grow(ptr noundef %0, ptr noundef %1, ptr noundef captures(none) %2, i32 noundef %3, i32 noundef %4) local_unnamed_addr #0 {
  %6 = load i32, ptr %2, align 4, !tbaa !110
  %7 = shl i32 %6, 1
  %spec.store.select = tail call i32 @llvm.umax.i32(i32 %7, i32 8)
  %spec.select = tail call i32 @llvm.umin.i32(i32 %spec.store.select, i32 %3)
  %8 = mul i32 %6, %4
  %9 = zext i32 %8 to i64
  %10 = mul i32 %spec.select, %4
  %11 = zext i32 %10 to i64
  %12 = getelementptr inbounds nuw i8, ptr %0, i64 16
  %13 = load i64, ptr %12, align 8, !tbaa !30
  %14 = inttoptr i64 %13 to ptr
  %15 = load ptr, ptr %14, align 8, !tbaa !108
  %16 = getelementptr inbounds nuw i8, ptr %14, i64 8
  %17 = load ptr, ptr %16, align 8, !tbaa !109
  %18 = tail call ptr %15(ptr noundef %17, ptr noundef %1, i64 noundef %9, i64 noundef %11) #8
  %19 = icmp eq ptr %18, null
  %20 = icmp ne i32 %10, 0
  %or.cond.i = and i1 %20, %19
  br i1 %or.cond.i, label %21, label %lj_mem_realloc.exit

21:                                               ; preds = %5
  tail call void @lj_err_mem(ptr noundef nonnull %0) #9
  unreachable

lj_mem_realloc.exit:                              ; preds = %5
  %22 = getelementptr inbounds nuw i8, ptr %14, i64 16
  %23 = load i64, ptr %22, align 8, !tbaa !68
  %24 = sub nsw i64 %11, %9
  %25 = add i64 %24, %23
  store i64 %25, ptr %22, align 8, !tbaa !68
  store i32 %spec.select, ptr %2, align 4, !tbaa !110
  ret ptr %18
}